target datalayout = "e-m:e-p270:32:32-p271:32:32-p272:64:64-i64:64-i128:128-f80:128-n8:16:32:64-S128"
target triple = "x86_64-pc-linux-gnu"

%struct.SDL_HIDAPI_Device = type { ptr, ptr, ptr, ptr, i16, i16, i16, ptr, %struct.SDL_GUID, i32, i32, i32, i32, i16, i16, i8, i32, i32, i32, ptr, ptr, ptr, ptr, %struct.SDL_AtomicInt, i32, ptr, i8, i8, i8, ptr, i32, ptr, ptr }
%struct.SDL_GUID = type { [16 x i8] }
%struct.SDL_AtomicInt = type { i32 }
%struct.SDL_DriverPS3_Context = type { ptr, ptr, i8, i8, i8, i8, i32, i8, i8, [64 x i8] }

@__const.HIDAPI_DriverPS3_UpdateEffects.effects = private unnamed_addr constant [35 x i8] c"\01\FF\00\FF\00\00\00\00\00\00\FF'\10\002\FF'\10\002\FF'\10\002\FF'\10\002\00\00\00\00\00", align 16
@.str.8 = private unnamed_addr constant [28 x i8] c"Couldn't send rumble packet\00", align 1

; Function Attrs: nounwind uwtable
define internal zeroext i1 @HIDAPI_DriverPS3_SendJoystickEffect(ptr noundef %0, ptr noundef %1, ptr noundef %2, i32 noundef %3) #0 {
  %5 = alloca i1, align 1
  %6 = alloca ptr, align 8
  %7 = alloca ptr, align 8
  %8 = alloca ptr, align 8
  %9 = alloca i32, align 4
  %10 = alloca [49 x i8], align 16
  %11 = alloca i32, align 4
  %12 = alloca i32, align 4
  %13 = alloca i32, align 4
  store ptr %0, ptr %6, align 8
  store ptr %1, ptr %7, align 8
  store ptr %2, ptr %8, align 8
  store i32 %3, ptr %9, align 4
  call void @llvm.lifetime.start.p0(i64 49, ptr %10) #7
  call void @llvm.lifetime.start.p0(i64 4, ptr %11) #7
  call void @llvm.lifetime.start.p0(i64 4, ptr %12) #7
  %14 = getelementptr inbounds [49 x i8], ptr %10, i64 0, i64 0
  call void @llvm.memset.p0.i64(ptr align 16 %14, i8 0, i64 49, i1 false)
  %15 = getelementptr inbounds [49 x i8], ptr %10, i64 0, i64 0
  store i8 1, ptr %15, align 16
  store i32 49, ptr %11, align 4
  store i32 1, ptr %12, align 4
  %16 = load i32, ptr %12, align 4
  %17 = sext i32 %16 to i64
  %18 = getelementptr inbounds [49 x i8], ptr %10, i64 0, i64 %17
  %19 = load ptr, ptr %8, align 8
  %20 = load i32, ptr %12, align 4
  %21 = sext i32 %20 to i64
  %22 = sub i64 49, %21
  %23 = load i32, ptr %9, align 4
  %24 = sext i32 %23 to i64
  %25 = icmp ult i64 %22, %24
  br i1 %25, label %26, label %30

26:                                               ; preds = %4
  %27 = load i32, ptr %12, align 4
  %28 = sext i32 %27 to i64
  %29 = sub i64 49, %28
  br label %33

30:                                               ; preds = %4
  %31 = load i32, ptr %9, align 4
  %32 = sext i32 %31 to i64
  br label %33

33:                                               ; preds = %30, %26
  %34 = phi i64 [ %29, %26 ], [ %32, %30 ]
  call void @llvm.memcpy.p0.p0.i64(ptr align 1 %18, ptr align 1 %19, i64 %34, i1 false)
  %35 = load ptr, ptr %6, align 8
  %36 = getelementptr inbounds [49 x i8], ptr %10, i64 0, i64 0
  %37 = load i32, ptr %11, align 4
  %38 = call i32 @SDL_HIDAPI_SendRumble(ptr noundef %35, ptr noundef %36, i32 noundef %37)
  %39 = load i32, ptr %11, align 4
  %40 = icmp ne i32 %38, %39
  br i1 %40, label %41, label %43

41:                                               ; preds = %33
  %42 = call zeroext i1 (ptr, ...) @SDL_SetError_REAL(ptr noundef @.str.8)
  store i1 %42, ptr %5, align 1
  store i32 1, ptr %13, align 4
  br label %44

43:                                               ; preds = %33
  store i1 true, ptr %5, align 1
  store i32 1, ptr %13, align 4
  br label %44

44:                                               ; preds = %43, %41
  call void @llvm.lifetime.end.p0(i64 4, ptr %12) #7
  call void @llvm.lifetime.end.p0(i64 4, ptr %11) #7
  call void @llvm.lifetime.end.p0(i64 49, ptr %10) #7
  %45 = load i1, ptr %5, align 1
  ret i1 %45
}

; Function Attrs: nounwind uwtable
define internal zeroext i1 @HIDAPI_DriverPS3_UpdateEffects(ptr noundef %0) #0 {
  %2 = alloca ptr, align 8
  %3 = alloca ptr, align 8
  %4 = alloca [35 x i8], align 16
  store ptr %0, ptr %2, align 8
  call void @llvm.lifetime.start.p0(i64 8, ptr %3) #7
  %5 = load ptr, ptr %2, align 8
  %6 = getelementptr inbounds nuw %struct.SDL_HIDAPI_Device, ptr %5, i32 0, i32 20
  %7 = load ptr, ptr %6, align 8
  store ptr %7, ptr %3, align 8
  call void @llvm.lifetime.start.p0(i64 35, ptr %4) #7
  call void @llvm.memcpy.p0.p0.i64(ptr align 16 %4, ptr align 16 @__const.HIDAPI_DriverPS3_UpdateEffects.effects, i64 35, i1 false)
  %8 = load ptr, ptr %3, align 8
  %9 = getelementptr inbounds nuw %struct.SDL_DriverPS3_Context, ptr %8, i32 0, i32 8
  %10 = load i8, ptr %9, align 1
  %11 = zext i8 %10 to i32
  %12 = icmp ne i32 %11, 0
  %13 = select i1 %12, i32 1, i32 0
  %14 = trunc i32 %13 to i8
  %15 = getelementptr inbounds [35 x i8], ptr %4, i64 0, i64 2
  store i8 %14, ptr %15, align 2
  %16 = load ptr, ptr %3, align 8
  %17 = getelementptr inbounds nuw %struct.SDL_DriverPS3_Context, ptr %16, i32 0, i32 7
  %18 = load i8, ptr %17, align 8
  %19 = getelementptr inbounds [35 x i8], ptr %4, i64 0, i64 4
  store i8 %18, ptr %19, align 4
  %20 = load ptr, ptr %3, align 8
  %21 = getelementptr inbounds nuw %struct.SDL_DriverPS3_Context, ptr %20, i32 0, i32 6
  %22 = load i32, ptr %21, align 4
  %23 = srem i32 %22, 4
  %24 = add nsw i32 1, %23
  %25 = shl i32 1, %24
  %26 = trunc i32 %25 to i8
  %27 = getelementptr inbounds [35 x i8], ptr %4, i64 0, i64 9
  store i8 %26, ptr %27, align 1
  %28 = load ptr, ptr %2, align 8
  %29 = load ptr, ptr %3, align 8
  %30 = getelementptr inbounds nuw %struct.SDL_DriverPS3_Context, ptr %29, i32 0, i32 1
  %31 = load ptr, ptr %30, align 8
  %32 = getelementptr inbounds [35 x i8], ptr %4, i64 0, i64 0
  %33 = call zeroext i1 @HIDAPI_DriverPS3_SendJoystickEffect(ptr noundef %28, ptr noundef %31, ptr noundef %32, i32 noundef 35)
  call void @llvm.lifetime.end.p0(i64 35, ptr %4) #7
  call void @llvm.lifetime.end.p0(i64 8, ptr %3) #7
  ret i1 %33
}

; Function Attrs: nounwind uwtable
define internal void @HIDAPI_DriverPS3_SetDevicePlayerIndex(ptr noundef %0, i32 noundef %1, i32 noundef %2) #0 {
  %4 = alloca ptr, align 8
  %5 = alloca i32, align 4
  %6 = alloca i32, align 4
  %7 = alloca ptr, align 8
  %8 = alloca i32, align 4
  store ptr %0, ptr %4, align 8
  store i32 %1, ptr %5, align 4
  store i32 %2, ptr %6, align 4
  call void @llvm.lifetime.start.p0(i64 8, ptr %7) #7
  %9 = load ptr, ptr %4, align 8
  %10 = getelementptr inbounds nuw %struct.SDL_HIDAPI_Device, ptr %9, i32 0, i32 20
  %11 = load ptr, ptr %10, align 8
  store ptr %11, ptr %7, align 8
  %12 = load ptr, ptr %7, align 8
  %13 = icmp ne ptr %12, null
  br i1 %13, label %15, label %14

14:                                               ; preds = %3
  store i32 1, ptr %8, align 4
  br label %21

15:                                               ; preds = %3
  %16 = load i32, ptr %6, align 4
  %17 = load ptr, ptr %7, align 8
  %18 = getelementptr inbounds nuw %struct.SDL_DriverPS3_Context, ptr %17, i32 0, i32 6
  store i32 %16, ptr %18, align 4
  %19 = load ptr, ptr %4, align 8
  %20 = call zeroext i1 @HIDAPI_DriverPS3_UpdateEffects(ptr noundef %19)
  store i32 0, ptr %8, align 4
  br label %21

21:                                               ; preds = %15, %14
  call void @llvm.lifetime.end.p0(i64 8, ptr %7) #7
  %22 = load i32, ptr %8, align 4
  switch i32 %22, label %24 [
    i32 0, label %23
    i32 1, label %23
  ]

23:                                               ; preds = %21, %21
  ret void

24:                                               ; preds = %21
  unreachable
}