; Function Attrs: nounwind uwtable
define internal void @HIDAPI_DriverPS3_SetDevicePlayerIndex(ptr noundef %0, i32 %1, i32 noundef %2) #0 {
  %4 = alloca [49 x i8], align 16
  %5 = getelementptr inbounds nuw i8, ptr %0, i64 112
  %6 = load ptr, ptr %5, align 8
  %.not = icmp eq ptr %6, null
  br i1 %.not, label %26, label %7

7:                                                ; preds = %3
  %8 = getelementptr inbounds nuw i8, ptr %6, i64 20
  store i32 %2, ptr %8, align 4
  %9 = load ptr, ptr %5, align 8
  %10 = getelementptr inbounds nuw i8, ptr %9, i64 25
  %11 = load i8, ptr %10, align 1
  %.not.i = icmp ne i8 %11, 0
  %12 = zext i1 %.not.i to i8
  %13 = getelementptr inbounds nuw i8, ptr %9, i64 24
  %14 = load i8, ptr %13, align 8
  %15 = getelementptr inbounds nuw i8, ptr %9, i64 20
  %16 = load i32, ptr %15, align 4
  %17 = srem i32 %16, 4
  %18 = add nsw i32 %17, 1
  %19 = shl nuw nsw i32 1, %18
  %20 = trunc i32 %19 to i8
  call void @llvm.lifetime.start.p0(i64 49, ptr nonnull %4) #10
  %21 = getelementptr inbounds nuw i8, ptr %4, i64 32
  call void @llvm.memset.p0.i64(ptr noundef nonnull align 16 dereferenceable(17) %21, i8 0, i64 17, i1 false)
  store i8 1, ptr %4, align 16
  %22 = getelementptr inbounds nuw i8, ptr %4, i64 1
  store i16 -255, ptr %22, align 1
  %.sroa.4.0..sroa_idx.i = getelementptr inbounds nuw i8, ptr %4, i64 3
  store i8 %12, ptr %.sroa.4.0..sroa_idx.i, align 1
  %.sroa.5.0..sroa_idx.i = getelementptr inbounds nuw i8, ptr %4, i64 4
  store i8 -1, ptr %.sroa.5.0..sroa_idx.i, align 4
  %.sroa.59.0..sroa_idx.i = getelementptr inbounds nuw i8, ptr %4, i64 5
  store i8 %14, ptr %.sroa.59.0..sroa_idx.i, align 1
  %.sroa.6.0..sroa_idx.i = getelementptr inbounds nuw i8, ptr %4, i64 6
  store i32 0, ptr %.sroa.6.0..sroa_idx.i, align 2
  %.sroa.612.0..sroa_idx.i = getelementptr inbounds nuw i8, ptr %4, i64 10
  store i8 %20, ptr %.sroa.612.0..sroa_idx.i, align 2
  %.sroa.7.0..sroa_idx.i = getelementptr inbounds nuw i8, ptr %4, i64 11
  call void @llvm.memcpy.p0.p0.i64(ptr noundef nonnull align 1 dereferenceable(25) %.sroa.7.0..sroa_idx.i, ptr noundef nonnull align 2 dereferenceable(25) getelementptr inbounds nuw (i8, ptr @__const.HIDAPI_DriverPS3_UpdateEffects.effects, i64 10), i64 25, i1 false)
  %23 = call i32 @SDL_HIDAPI_SendRumble(ptr noundef nonnull %0, ptr noundef nonnull %4, i32 noundef 49) #10
  %.not.i.i = icmp eq i32 %23, 49
  br i1 %.not.i.i, label %HIDAPI_DriverPS3_UpdateEffects.exit, label %24

24:                                               ; preds = %7
  %25 = call zeroext i1 (ptr, ...) @SDL_SetError_REAL(ptr noundef nonnull @.str.8) #10
  br label %HIDAPI_DriverPS3_UpdateEffects.exit

HIDAPI_DriverPS3_UpdateEffects.exit:              ; preds = %7, %24
  call void @llvm.lifetime.end.p0(i64 49, ptr nonnull %4) #10
  br label %26

26:                                               ; preds = %3, %HIDAPI_DriverPS3_UpdateEffects.exit
  ret void
}